target datalayout = "e-m:e-p270:32:32-p271:32:32-p272:64:64-i64:64-i128:128-f80:128-n8:16:32:64-S128"
target triple = "x86_64-pc-linux-gnu"

%struct.ChunkInfo = type { i32, i32, i32 }

; Function Attrs: nounwind uwtable
define hidden i32 @ChunkGetIndexFromTag(i32 noundef %0) #0 {
  %2 = alloca i32, align 4
  %3 = alloca i32, align 4
  %4 = alloca i32, align 4
  %5 = alloca i32, align 4
  store i32 %0, ptr %3, align 4, !tbaa !19
  call void @llvm.lifetime.start.p0(i64 4, ptr %4) #6
  store i32 0, ptr %4, align 4, !tbaa !19
  br label %6

6:                                                ; preds = %24, %1
  %7 = load i32, ptr %4, align 4, !tbaa !19
  %8 = sext i32 %7 to i64
  %9 = getelementptr inbounds [11 x %struct.ChunkInfo], ptr @kChunks, i64 0, i64 %8
  %10 = getelementptr inbounds nuw %struct.ChunkInfo, ptr %9, i32 0, i32 0
  %11 = load i32, ptr %10, align 4, !tbaa !20
  %12 = icmp ne i32 %11, 0
  br i1 %12, label %13, label %27

13:                                               ; preds = %6
  %14 = load i32, ptr %3, align 4, !tbaa !19
  %15 = load i32, ptr %4, align 4, !tbaa !19
  %16 = sext i32 %15 to i64
  %17 = getelementptr inbounds [11 x %struct.ChunkInfo], ptr @kChunks, i64 0, i64 %16
  %18 = getelementptr inbounds nuw %struct.ChunkInfo, ptr %17, i32 0, i32 0
  %19 = load i32, ptr %18, align 4, !tbaa !20
  %20 = icmp eq i32 %14, %19
  br i1 %20, label %21, label %23

21:                                               ; preds = %13
  %22 = load i32, ptr %4, align 4, !tbaa !19
  store i32 %22, ptr %2, align 4
  store i32 1, ptr %5, align 4
  br label %28

23:                                               ; preds = %13
  br label %24

24:                                               ; preds = %23
  %25 = load i32, ptr %4, align 4, !tbaa !19
  %26 = add nsw i32 %25, 1
  store i32 %26, ptr %4, align 4, !tbaa !19
  br label %6, !llvm.loop !22

27:                                               ; preds = %6
  store i32 9, ptr %2, align 4
  store i32 1, ptr %5, align 4
  br label %28

28:                                               ; preds = %27, %21
  call void @llvm.lifetime.end.p0(i64 4, ptr %4) #6
  %29 = load i32, ptr %2, align 4
  ret i32 %29
}

; Function Attrs: nounwind uwtable
define hidden i32 @ChunkGetTagFromFourCC(ptr noundef %0) #0 {
  %2 = alloca ptr, align 8
  store ptr %0, ptr %2, align 8, !tbaa !26
  %3 = load ptr, ptr %2, align 8, !tbaa !26
  %4 = getelementptr inbounds i8, ptr %3, i64 0
  %5 = load i8, ptr %4, align 1, !tbaa !27
  %6 = sext i8 %5 to i32
  %7 = load ptr, ptr %2, align 8, !tbaa !26
  %8 = getelementptr inbounds i8, ptr %7, i64 1
  %9 = load i8, ptr %8, align 1, !tbaa !27
  %10 = sext i8 %9 to i32
  %11 = shl i32 %10, 8
  %12 = or i32 %6, %11
  %13 = load ptr, ptr %2, align 8, !tbaa !26
  %14 = getelementptr inbounds i8, ptr %13, i64 2
  %15 = load i8, ptr %14, align 1, !tbaa !27
  %16 = sext i8 %15 to i32
  %17 = shl i32 %16, 16
  %18 = or i32 %12, %17
  %19 = load ptr, ptr %2, align 8, !tbaa !26
  %20 = getelementptr inbounds i8, ptr %19, i64 3
  %21 = load i8, ptr %20, align 1, !tbaa !27
  %22 = sext i8 %21 to i32
  %23 = shl i32 %22, 24
  %24 = or i32 %18, %23
  ret i32 %24
}

; Function Attrs: nounwind uwtable
define hidden i32 @ChunkGetIndexFromFourCC(ptr noundef %0) #0 {
  %2 = alloca ptr, align 8
  %3 = alloca i32, align 4
  store ptr %0, ptr %2, align 8, !tbaa !26
  call void @llvm.lifetime.start.p0(i64 4, ptr %3) #6
  %4 = load ptr, ptr %2, align 8, !tbaa !26
  %5 = call i32 @ChunkGetTagFromFourCC(ptr noundef %4)
  store i32 %5, ptr %3, align 4, !tbaa !19
  %6 = load i32, ptr %3, align 4, !tbaa !19
  %7 = call i32 @ChunkGetIndexFromTag(i32 noundef %6)
  call void @llvm.lifetime.end.p0(i64 4, ptr %3) #6
  ret i32 %7
}