; Function Attrs: nofree norecurse nosync nounwind memory(argmem: read) uwtable
define hidden i32 @ChunkGetIndexFromFourCC(ptr noundef readonly captures(none) %0) local_unnamed_addr #7 {
  %2 = load i8, ptr %0, align 1, !tbaa !21
  %3 = sext i8 %2 to i32
  %4 = getelementptr inbounds nuw i8, ptr %0, i64 1
  %5 = load i8, ptr %4, align 1, !tbaa !21
  %6 = sext i8 %5 to i32
  %7 = shl nsw i32 %6, 8
  %8 = or i32 %7, %3
  %9 = getelementptr inbounds nuw i8, ptr %0, i64 2
  %10 = load i8, ptr %9, align 1, !tbaa !21
  %11 = sext i8 %10 to i32
  %12 = shl nsw i32 %11, 16
  %13 = or i32 %8, %12
  %14 = getelementptr inbounds nuw i8, ptr %0, i64 3
  %15 = load i8, ptr %14, align 1, !tbaa !21
  %16 = sext i8 %15 to i32
  %17 = shl nsw i32 %16, 24
  %18 = or i32 %13, %17
  br label %19

19:                                               ; preds = %22, %1
  %indvars.iv.i = phi i64 [ 0, %1 ], [ %indvars.iv.next.i, %22 ]
  %20 = phi i32 [ 1480085590, %1 ], [ %24, %22 ]
  %21 = icmp eq i32 %18, %20
  br i1 %21, label %.split.loop.exit10.i, label %22

22:                                               ; preds = %19
  %indvars.iv.next.i = add nuw nsw i64 %indvars.iv.i, 1
  %23 = getelementptr inbounds nuw [11 x %struct.ChunkInfo], ptr @kChunks, i64 0, i64 %indvars.iv.next.i
  %24 = load i32, ptr %23, align 4, !tbaa !15
  %exitcond.i = icmp eq i64 %indvars.iv.next.i, 9
  br i1 %exitcond.i, label %ChunkGetIndexFromTag.exit, label %19, !llvm.loop !17

.split.loop.exit10.i:                             ; preds = %19
  %25 = trunc nuw nsw i64 %indvars.iv.i to i32
  br label %ChunkGetIndexFromTag.exit

ChunkGetIndexFromTag.exit:                        ; preds = %22, %.split.loop.exit10.i
  %.06.i = phi i32 [ %25, %.split.loop.exit10.i ], [ 9, %22 ]
  ret i32 %.06.i
}